target datalayout = "e-m:e-p270:32:32-p271:32:32-p272:64:64-i64:64-i128:128-f80:128-n8:16:32:64-S128"
target triple = "x86_64-pc-linux-gnu"

%struct.Agdesc_s = type { i8, [3 x i8] }
%struct.Agobj_s = type { %struct.Agtag_s, ptr }
%struct.Agtag_s = type { i32, i64 }
%struct.Agraph_s = type { %struct.Agobj_s, %struct.Agdesc_s, %struct.dtlink_s_, %struct.dtlink_s_, ptr, ptr, ptr, ptr, ptr, ptr, ptr, ptr, ptr }
%struct.dtlink_s_ = type { ptr, %union.anon }
%union.anon = type { ptr }
%struct.Agsubnode_s = type { %struct.dtlink_s_, %struct.dtlink_s_, ptr, ptr, ptr, ptr, ptr }

; Function Attrs: nounwind uwtable
define internal i32 @cnt(ptr noundef %0, ptr noundef %1) #0 {
  %3 = alloca ptr, align 8
  %4 = alloca ptr, align 8
  %5 = alloca i32, align 4
  store ptr %0, ptr %3, align 8, !tbaa !77
  store ptr %1, ptr %4, align 8, !tbaa !78
  call void @llvm.lifetime.start.p0(i64 4, ptr %5) #9
  %6 = load ptr, ptr %3, align 8, !tbaa !77
  %7 = load ptr, ptr %4, align 8, !tbaa !78
  %8 = load ptr, ptr %7, align 8, !tbaa !80
  %9 = call i32 @dtrestore(ptr noundef %6, ptr noundef %8)
  %10 = load ptr, ptr %3, align 8, !tbaa !77
  %11 = call i32 @dtsize(ptr noundef %10)
  store i32 %11, ptr %5, align 4, !tbaa !57
  %12 = load ptr, ptr %3, align 8, !tbaa !77
  %13 = call ptr @dtextract(ptr noundef %12)
  %14 = load ptr, ptr %4, align 8, !tbaa !78
  store ptr %13, ptr %14, align 8, !tbaa !80
  %15 = load i32, ptr %5, align 4, !tbaa !57
  call void @llvm.lifetime.end.p0(i64 4, ptr %5) #9
  ret i32 %15
}

; Function Attrs: nounwind uwtable
define i32 @agdegree(ptr noundef %0, ptr noundef %1, i32 noundef %2, i32 noundef %3) #0 {
  %5 = alloca ptr, align 8
  %6 = alloca ptr, align 8
  %7 = alloca i32, align 4
  %8 = alloca i32, align 4
  %9 = alloca ptr, align 8
  %10 = alloca i32, align 4
  store ptr %0, ptr %5, align 8, !tbaa !12
  store ptr %1, ptr %6, align 8, !tbaa !60
  store i32 %2, ptr %7, align 4, !tbaa !57
  store i32 %3, ptr %8, align 4, !tbaa !57
  call void @llvm.lifetime.start.p0(i64 8, ptr %9) #9
  call void @llvm.lifetime.start.p0(i64 4, ptr %10) #9
  store i32 0, ptr %10, align 4, !tbaa !57
  %11 = load ptr, ptr %5, align 8, !tbaa !12
  %12 = load ptr, ptr %6, align 8, !tbaa !60
  %13 = call ptr @agsubrep(ptr noundef %11, ptr noundef %12)
  store ptr %13, ptr %9, align 8, !tbaa !70
  %14 = load ptr, ptr %9, align 8, !tbaa !70
  %15 = icmp ne ptr %14, null
  br i1 %15, label %16, label %41

16:                                               ; preds = %4
  %17 = load i32, ptr %8, align 4, !tbaa !57
  %18 = icmp ne i32 %17, 0
  br i1 %18, label %19, label %28

19:                                               ; preds = %16
  %20 = load ptr, ptr %5, align 8, !tbaa !12
  %21 = getelementptr inbounds nuw %struct.Agraph_s, ptr %20, i32 0, i32 6
  %22 = load ptr, ptr %21, align 8, !tbaa !49
  %23 = load ptr, ptr %9, align 8, !tbaa !70
  %24 = getelementptr inbounds nuw %struct.Agsubnode_s, ptr %23, i32 0, i32 6
  %25 = call i32 @cnt(ptr noundef %22, ptr noundef %24)
  %26 = load i32, ptr %10, align 4, !tbaa !57
  %27 = add nsw i32 %26, %25
  store i32 %27, ptr %10, align 4, !tbaa !57
  br label %28

28:                                               ; preds = %19, %16
  %29 = load i32, ptr %7, align 4, !tbaa !57
  %30 = icmp ne i32 %29, 0
  br i1 %30, label %31, label %40

31:                                               ; preds = %28
  %32 = load ptr, ptr %5, align 8, !tbaa !12
  %33 = getelementptr inbounds nuw %struct.Agraph_s, ptr %32, i32 0, i32 6
  %34 = load ptr, ptr %33, align 8, !tbaa !49
  %35 = load ptr, ptr %9, align 8, !tbaa !70
  %36 = getelementptr inbounds nuw %struct.Agsubnode_s, ptr %35, i32 0, i32 5
  %37 = call i32 @cnt(ptr noundef %34, ptr noundef %36)
  %38 = load i32, ptr %10, align 4, !tbaa !57
  %39 = add nsw i32 %38, %37
  store i32 %39, ptr %10, align 4, !tbaa !57
  br label %40

40:                                               ; preds = %31, %28
  br label %41

41:                                               ; preds = %40, %4
  %42 = load i32, ptr %10, align 4, !tbaa !57
  call void @llvm.lifetime.end.p0(i64 4, ptr %10) #9
  call void @llvm.lifetime.end.p0(i64 8, ptr %9) #9
  ret i32 %42
}

; Function Attrs: nounwind uwtable
define i32 @agnedges(ptr noundef %0) #0 {
  %2 = alloca ptr, align 8
  %3 = alloca ptr, align 8
  %4 = alloca i32, align 4
  store ptr %0, ptr %2, align 8, !tbaa !12
  call void @llvm.lifetime.start.p0(i64 8, ptr %3) #9
  call void @llvm.lifetime.start.p0(i64 4, ptr %4) #9
  store i32 0, ptr %4, align 4, !tbaa !57
  %5 = load ptr, ptr %2, align 8, !tbaa !12
  %6 = call ptr @agfstnode(ptr noundef %5)
  store ptr %6, ptr %3, align 8, !tbaa !60
  br label %7

7:                                                ; preds = %16, %1
  %8 = load ptr, ptr %3, align 8, !tbaa !60
  %9 = icmp ne ptr %8, null
  br i1 %9, label %10, label %20

10:                                               ; preds = %7
  %11 = load ptr, ptr %2, align 8, !tbaa !12
  %12 = load ptr, ptr %3, align 8, !tbaa !60
  %13 = call i32 @agdegree(ptr noundef %11, ptr noundef %12, i32 noundef 0, i32 noundef 1)
  %14 = load i32, ptr %4, align 4, !tbaa !57
  %15 = add nsw i32 %14, %13
  store i32 %15, ptr %4, align 4, !tbaa !57
  br label %16

16:                                               ; preds = %10
  %17 = load ptr, ptr %2, align 8, !tbaa !12
  %18 = load ptr, ptr %3, align 8, !tbaa !60
  %19 = call ptr @agnxtnode(ptr noundef %17, ptr noundef %18)
  store ptr %19, ptr %3, align 8, !tbaa !60
  br label %7, !llvm.loop !69

20:                                               ; preds = %7
  %21 = load i32, ptr %4, align 4, !tbaa !57
  call void @llvm.lifetime.end.p0(i64 4, ptr %4) #9
  call void @llvm.lifetime.end.p0(i64 8, ptr %3) #9
  ret i32 %21
}