; Function Attrs: nounwind uwtable
define i32 @agnedges(ptr noundef %0) local_unnamed_addr #0 {
  %2 = tail call ptr @agfstnode(ptr noundef %0) #11
  %.not8 = icmp eq ptr %2, null
  br i1 %.not8, label %._crit_edge, label %.lr.ph

.lr.ph:                                           ; preds = %1
  %3 = getelementptr inbounds nuw i8, ptr %0, i64 80
  br label %4

4:                                                ; preds = %.lr.ph, %agdegree.exit
  %.010 = phi i32 [ 0, %.lr.ph ], [ %13, %agdegree.exit ]
  %.079 = phi ptr [ %2, %.lr.ph ], [ %14, %agdegree.exit ]
  %5 = tail call ptr @agsubrep(ptr noundef %0, ptr noundef nonnull %.079) #11
  %.not.i = icmp eq ptr %5, null
  br i1 %.not.i, label %agdegree.exit, label %6

6:                                                ; preds = %4
  %7 = load ptr, ptr %3, align 8, !tbaa !41
  %8 = getelementptr inbounds nuw i8, ptr %5, i64 64
  %9 = load ptr, ptr %8, align 8, !tbaa !58
  %10 = tail call i32 @dtrestore(ptr noundef %7, ptr noundef %9) #11
  %11 = tail call i32 @dtsize(ptr noundef %7) #11
  %12 = tail call ptr @dtextract(ptr noundef %7) #11
  store ptr %12, ptr %8, align 8, !tbaa !58
  br label %agdegree.exit

agdegree.exit:                                    ; preds = %4, %6
  %.0.i = phi i32 [ %11, %6 ], [ 0, %4 ]
  %13 = add nsw i32 %.0.i, %.010
  %14 = tail call ptr @agnxtnode(ptr noundef %0, ptr noundef nonnull %.079) #11
  %.not = icmp eq ptr %14, null
  br i1 %.not, label %._crit_edge, label %4, !llvm.loop !59

._crit_edge:                                      ; preds = %agdegree.exit, %1
  %.0.lcssa = phi i32 [ 0, %1 ], [ %13, %agdegree.exit ]
  ret i32 %.0.lcssa
}